target datalayout = "e-m:e-p270:32:32-p271:32:32-p272:64:64-i64:64-i128:128-f80:128-n8:16:32:64-S128"
target triple = "x86_64-pc-linux-gnu"

%union.anon.1 = type { i32, [12 x i8] }

@.str.54 = private unnamed_addr constant [2 x i8] c"r\00", align 1
@.str.55 = private unnamed_addr constant [3 x i8] c" \09\00", align 1
@.str.56 = private unnamed_addr constant [3 x i8] c"\0D\0A\00", align 1

; Function Attrs: null_pointer_is_valid sspstrong uwtable
define internal i32 @fgetline(ptr noundef %0, i32 noundef %1, ptr noundef %2) #3 {
  %4 = alloca i32, align 4
  %5 = alloca ptr, align 8
  %6 = alloca i32, align 4
  %7 = alloca ptr, align 8
  %8 = alloca i32, align 4
  store ptr %0, ptr %5, align 8
  store i32 %1, ptr %6, align 4
  store ptr %2, ptr %7, align 8
  %9 = load ptr, ptr %5, align 8
  %10 = load i32, ptr %6, align 4
  %11 = load ptr, ptr %7, align 8
  %12 = call ptr @fgets(ptr noundef %9, i32 noundef %10, ptr noundef %11)
  %13 = icmp ne ptr %12, null
  br i1 %13, label %14, label %23

14:                                               ; preds = %3
  call void @llvm.lifetime.start.p0(i64 4, ptr %8) #16
  %15 = load ptr, ptr %5, align 8
  %16 = call i64 @strcspn(ptr noundef %15, ptr noundef @.str.56) #17
  %17 = trunc i64 %16 to i32
  store i32 %17, ptr %8, align 4
  %18 = load ptr, ptr %5, align 8
  %19 = load i32, ptr %8, align 4
  %20 = sext i32 %19 to i64
  %21 = getelementptr i8, ptr %18, i64 %20
  store i8 0, ptr %21, align 1
  %22 = load i32, ptr %8, align 4
  store i32 %22, ptr %4, align 4
  call void @llvm.lifetime.end.p0(i64 4, ptr %8) #16
  br label %24

23:                                               ; preds = %3
  store i32 -1, ptr %4, align 4
  br label %24

24:                                               ; preds = %23, %14
  %25 = load i32, ptr %4, align 4
  ret i32 %25
}

; Function Attrs: null_pointer_is_valid sspstrong uwtable
define internal zeroext i1 @read_hosts_file(ptr noundef %0, i1 noundef zeroext %1) #3 {
  %3 = alloca i1, align 1
  %4 = alloca ptr, align 8
  %5 = alloca i8, align 1
  %6 = alloca ptr, align 8
  %7 = alloca [1024 x i8], align 16
  %8 = alloca ptr, align 8
  %9 = alloca %union.anon.1, align 4
  %10 = alloca i8, align 1
  %11 = alloca i8, align 1
  %12 = alloca i32, align 4
  store ptr %0, ptr %4, align 8
  %13 = zext i1 %1 to i8
  store i8 %13, ptr %5, align 1
  call void @llvm.lifetime.start.p0(i64 8, ptr %6) #16
  call void @llvm.lifetime.start.p0(i64 1024, ptr %7) #16
  call void @llvm.lifetime.start.p0(i64 8, ptr %8) #16
  call void @llvm.lifetime.start.p0(i64 16, ptr %9) #16
  call void @llvm.lifetime.start.p0(i64 1, ptr %10) #16
  call void @llvm.lifetime.start.p0(i64 1, ptr %11) #16
  store i8 0, ptr %11, align 1
  %14 = load ptr, ptr %4, align 8
  %15 = call noalias ptr @fopen(ptr noundef %14, ptr noundef @.str.54)
  store ptr %15, ptr %6, align 8
  %16 = icmp eq ptr %15, null
  br i1 %16, label %17, label %18

17:                                               ; preds = %2
  store i1 false, ptr %3, align 1
  store i32 1, ptr %12, align 4
  br label %69

18:                                               ; preds = %2
  br label %19

19:                                               ; preds = %61, %48, %43, %34, %18
  %20 = getelementptr inbounds [1024 x i8], ptr %7, i64 0, i64 0
  %21 = load ptr, ptr %6, align 8
  %22 = call i32 @fgetline(ptr noundef %20, i32 noundef 1024, ptr noundef %21)
  %23 = icmp sge i32 %22, 0
  br i1 %23, label %24, label %62

24:                                               ; preds = %19
  %25 = getelementptr inbounds [1024 x i8], ptr %7, i64 0, i64 0
  %26 = call ptr @strchr(ptr noundef %25, i32 noundef 35) #17
  store ptr %26, ptr %8, align 8
  %27 = icmp ne ptr %26, null
  br i1 %27, label %28, label %30

28:                                               ; preds = %24
  %29 = load ptr, ptr %8, align 8
  store i8 0, ptr %29, align 1
  br label %30

30:                                               ; preds = %28, %24
  %31 = getelementptr inbounds [1024 x i8], ptr %7, i64 0, i64 0
  %32 = call ptr @strtok(ptr noundef %31, ptr noundef @.str.55) #16
  store ptr %32, ptr %8, align 8
  %33 = icmp eq ptr %32, null
  br i1 %33, label %34, label %35

34:                                               ; preds = %30
  br label %19, !llvm.loop !17

35:                                               ; preds = %30
  %36 = load ptr, ptr %8, align 8
  %37 = call zeroext i1 @ws_inet_pton6(ptr noundef %36, ptr noundef %9)
  br i1 %37, label %38, label %39

38:                                               ; preds = %35
  store i8 1, ptr %10, align 1
  br label %45

39:                                               ; preds = %35
  %40 = load ptr, ptr %8, align 8
  %41 = call zeroext i1 @ws_inet_pton4(ptr noundef %40, ptr noundef %9)
  br i1 %41, label %42, label %43

42:                                               ; preds = %39
  store i8 0, ptr %10, align 1
  br label %44

43:                                               ; preds = %39
  br label %19, !llvm.loop !17

44:                                               ; preds = %42
  br label %45

45:                                               ; preds = %44, %38
  %46 = call ptr @strtok(ptr noundef null, ptr noundef @.str.55) #16
  store ptr %46, ptr %8, align 8
  %47 = icmp eq ptr %46, null
  br i1 %47, label %48, label %49

48:                                               ; preds = %45
  br label %19, !llvm.loop !17

49:                                               ; preds = %45
  store i8 1, ptr %11, align 1
  %50 = load i8, ptr %5, align 1, !range !8, !noundef !9
  %51 = trunc i8 %50 to i1
  br i1 %51, label %52, label %61

52:                                               ; preds = %49
  %53 = load i8, ptr %10, align 1, !range !8, !noundef !9
  %54 = trunc i8 %53 to i1
  br i1 %54, label %55, label %57

55:                                               ; preds = %52
  %56 = load ptr, ptr %8, align 8
  call void @add_ipv6_name(ptr noundef %9, ptr noundef %56, i1 noundef zeroext true)
  br label %60

57:                                               ; preds = %52
  %58 = load i32, ptr %9, align 4
  %59 = load ptr, ptr %8, align 8
  call void @add_ipv4_name(i32 noundef %58, ptr noundef %59, i1 noundef zeroext true)
  br label %60

60:                                               ; preds = %57, %55
  br label %61

61:                                               ; preds = %60, %49
  br label %19, !llvm.loop !17

62:                                               ; preds = %19
  %63 = load ptr, ptr %6, align 8
  %64 = call i32 @fclose(ptr noundef %63)
  %65 = load i8, ptr %11, align 1, !range !8, !noundef !9
  %66 = trunc i8 %65 to i1
  %67 = select i1 %66, i32 1, i32 0
  %68 = icmp ne i32 %67, 0
  store i1 %68, ptr %3, align 1
  store i32 1, ptr %12, align 4
  br label %69

69:                                               ; preds = %62, %17
  call void @llvm.lifetime.end.p0(i64 1, ptr %11) #16
  call void @llvm.lifetime.end.p0(i64 1, ptr %10) #16
  call void @llvm.lifetime.end.p0(i64 16, ptr %9) #16
  call void @llvm.lifetime.end.p0(i64 8, ptr %8) #16
  call void @llvm.lifetime.end.p0(i64 1024, ptr %7) #16
  call void @llvm.lifetime.end.p0(i64 8, ptr %6) #16
  %70 = load i1, ptr %3, align 1
  ret i1 %70
}