; Function Attrs: null_pointer_is_valid sspstrong uwtable
define internal fastcc noundef zeroext i1 @read_hosts_file(ptr noundef readonly captures(none) %0, i1 noundef zeroext %1) unnamed_addr #3 {
  %3 = alloca [1024 x i8], align 16
  %4 = alloca %union.anon.1, align 4
  call void @llvm.lifetime.start.p0(i64 1024, ptr nonnull %3) #24
  call void @llvm.lifetime.start.p0(i64 16, ptr nonnull %4) #24
  %5 = tail call noalias ptr @fopen(ptr noundef %0, ptr noundef nonnull @.str.54)
  %6 = icmp eq ptr %5, null
  br i1 %6, label %54, label %.preheader

.preheader:                                       ; preds = %2
  %7 = call ptr @fgets(ptr noundef nonnull %3, i32 noundef 1024, ptr noundef nonnull %5)
  %.not.i1821 = icmp eq ptr %7, null
  br i1 %.not.i1821, label %fgetline.exit.thread, label %fgetline.exit.lr.ph.lr.ph

fgetline.exit.lr.ph.lr.ph:                        ; preds = %.preheader
  br i1 %1, label %fgetline.exit.lr.ph.us, label %fgetline.exit.lr.ph

fgetline.exit.lr.ph.us:                           ; preds = %fgetline.exit.lr.ph.lr.ph, %.outer.us
  %.0.ph22.us = phi i1 [ true, %.outer.us ], [ false, %fgetline.exit.lr.ph.lr.ph ]
  br label %fgetline.exit.us

fgetline.exit.us:                                 ; preds = %.backedge.us, %fgetline.exit.lr.ph.us
  %8 = call i64 @strcspn(ptr noundef nonnull %3, ptr noundef nonnull @.str.56) #28
  %sext.i.us = shl i64 %8, 32
  %9 = ashr exact i64 %sext.i.us, 32
  %10 = getelementptr i8, ptr %3, i64 %9
  store i8 0, ptr %10, align 1
  %11 = and i64 %8, 2147483648
  %12 = icmp eq i64 %11, 0
  br i1 %12, label %13, label %fgetline.exit.thread

13:                                               ; preds = %fgetline.exit.us
  %14 = call ptr @strchr(ptr noundef nonnull dereferenceable(1) %3, i32 noundef 35) #28
  %.not.us = icmp eq ptr %14, null
  br i1 %.not.us, label %16, label %15

15:                                               ; preds = %13
  store i8 0, ptr %14, align 1
  br label %16

16:                                               ; preds = %15, %13
  %17 = call ptr @strtok(ptr noundef nonnull %3, ptr noundef nonnull @.str.55) #24
  %18 = icmp eq ptr %17, null
  br i1 %18, label %.backedge.us, label %19

19:                                               ; preds = %16
  %20 = call zeroext i1 @ws_inet_pton6(ptr noundef nonnull %17, ptr noundef nonnull %4)
  br i1 %20, label %23, label %21

21:                                               ; preds = %19
  %22 = call zeroext i1 @ws_inet_pton4(ptr noundef nonnull %17, ptr noundef nonnull %4)
  br i1 %22, label %.thread, label %.backedge.us

23:                                               ; preds = %19
  %24 = call ptr @strtok(ptr noundef null, ptr noundef nonnull @.str.55) #24
  %25 = icmp eq ptr %24, null
  br i1 %25, label %.backedge.us, label %30

.thread:                                          ; preds = %21
  %26 = call ptr @strtok(ptr noundef null, ptr noundef nonnull @.str.55) #24
  %27 = icmp eq ptr %26, null
  br i1 %27, label %.backedge.us, label %28

28:                                               ; preds = %.thread
  %29 = load i32, ptr %4, align 4
  call void @add_ipv4_name(i32 noundef %29, ptr noundef nonnull %26, i1 noundef zeroext true)
  br label %.outer.us

30:                                               ; preds = %23
  call void @add_ipv6_name(ptr noundef nonnull %4, ptr noundef nonnull %24, i1 noundef zeroext true)
  br label %.outer.us

.outer.us:                                        ; preds = %30, %28
  %31 = call ptr @fgets(ptr noundef nonnull %3, i32 noundef 1024, ptr noundef nonnull %5)
  %.not.i18.us = icmp eq ptr %31, null
  br i1 %.not.i18.us, label %fgetline.exit.thread, label %fgetline.exit.lr.ph.us, !llvm.loop !15

.backedge.us:                                     ; preds = %.thread, %23, %21, %16
  %32 = call ptr @fgets(ptr noundef nonnull %3, i32 noundef 1024, ptr noundef nonnull %5)
  %.not.i.us = icmp eq ptr %32, null
  br i1 %.not.i.us, label %fgetline.exit.thread, label %fgetline.exit.us, !llvm.loop !15

fgetline.exit.lr.ph:                              ; preds = %fgetline.exit.lr.ph.lr.ph, %.outer
  %.0.ph22 = phi i1 [ true, %.outer ], [ false, %fgetline.exit.lr.ph.lr.ph ]
  br label %fgetline.exit

fgetline.exit:                                    ; preds = %fgetline.exit.lr.ph, %.backedge
  %33 = call i64 @strcspn(ptr noundef nonnull %3, ptr noundef nonnull @.str.56) #28
  %sext.i = shl i64 %33, 32
  %34 = ashr exact i64 %sext.i, 32
  %35 = getelementptr i8, ptr %3, i64 %34
  store i8 0, ptr %35, align 1
  %36 = and i64 %33, 2147483648
  %37 = icmp eq i64 %36, 0
  br i1 %37, label %38, label %fgetline.exit.thread

38:                                               ; preds = %fgetline.exit
  %39 = call ptr @strchr(ptr noundef nonnull dereferenceable(1) %3, i32 noundef 35) #28
  %.not = icmp eq ptr %39, null
  br i1 %.not, label %41, label %40

40:                                               ; preds = %38
  store i8 0, ptr %39, align 1
  br label %41

41:                                               ; preds = %40, %38
  %42 = call ptr @strtok(ptr noundef nonnull %3, ptr noundef nonnull @.str.55) #24
  %43 = icmp eq ptr %42, null
  br i1 %43, label %.backedge, label %45

.backedge:                                        ; preds = %41, %47, %49
  %44 = call ptr @fgets(ptr noundef nonnull %3, i32 noundef 1024, ptr noundef nonnull %5)
  %.not.i = icmp eq ptr %44, null
  br i1 %.not.i, label %fgetline.exit.thread, label %fgetline.exit, !llvm.loop !15

45:                                               ; preds = %41
  %46 = call zeroext i1 @ws_inet_pton6(ptr noundef nonnull %42, ptr noundef nonnull %4)
  br i1 %46, label %49, label %47

47:                                               ; preds = %45
  %48 = call zeroext i1 @ws_inet_pton4(ptr noundef nonnull %42, ptr noundef nonnull %4)
  br i1 %48, label %49, label %.backedge

49:                                               ; preds = %47, %45
  %50 = call ptr @strtok(ptr noundef null, ptr noundef nonnull @.str.55) #24
  %51 = icmp eq ptr %50, null
  br i1 %51, label %.backedge, label %.outer

.outer:                                           ; preds = %49
  %52 = call ptr @fgets(ptr noundef nonnull %3, i32 noundef 1024, ptr noundef nonnull %5)
  %.not.i18 = icmp eq ptr %52, null
  br i1 %.not.i18, label %fgetline.exit.thread, label %fgetline.exit.lr.ph, !llvm.loop !15

fgetline.exit.thread:                             ; preds = %.outer, %fgetline.exit, %.backedge, %.outer.us, %fgetline.exit.us, %.backedge.us, %.preheader
  %.0.ph.lcssa = phi i1 [ false, %.preheader ], [ %.0.ph22.us, %.backedge.us ], [ %.0.ph22.us, %fgetline.exit.us ], [ true, %.outer.us ], [ %.0.ph22, %.backedge ], [ %.0.ph22, %fgetline.exit ], [ true, %.outer ]
  %53 = call i32 @fclose(ptr noundef nonnull %5)
  br label %54

54:                                               ; preds = %2, %fgetline.exit.thread
  %.012 = phi i1 [ %.0.ph.lcssa, %fgetline.exit.thread ], [ false, %2 ]
  call void @llvm.lifetime.end.p0(i64 16, ptr nonnull %4) #24
  call void @llvm.lifetime.end.p0(i64 1024, ptr nonnull %3) #24
  ret i1 %.012
}